; Function Attrs: mustprogress null_pointer_is_valid sspstrong uwtable
define void @_ZN13IOGraphDialog26on_actionZoomInY_triggeredEv(ptr noundef align 8 captures(none) dereferenceable_or_null(384) initializes((347, 348)) %0) local_unnamed_addr #2 align 2 {
  %2 = getelementptr inbounds nuw i8, ptr %0, i64 144
  %3 = load ptr, ptr %2, align 8
  %4 = getelementptr inbounds nuw i8, ptr %3, i64 208
  %5 = load ptr, ptr %4, align 8
  %6 = tail call noundef ptr @_ZNK11QCustomPlot8axisRectEi(ptr noundef align 8 dereferenceable_or_null(513) %5, i32 noundef 0)
  %7 = tail call noundef double @_ZN11QCPAxisRect15rangeZoomFactorEN2Qt11OrientationE(ptr noundef align 8 dereferenceable_or_null(432) %6, i32 noundef 2)
  %8 = getelementptr inbounds nuw i8, ptr %0, i64 347
  store i8 0, ptr %8, align 1
  %9 = getelementptr inbounds nuw i8, ptr %5, i64 48
  %10 = load ptr, ptr %9, align 8
  %11 = getelementptr inbounds nuw i8, ptr %10, i64 304
  %.sroa.0.0.copyload.i.i = load double, ptr %11, align 8
  %.sroa.2.0..sroa_idx.i.i = getelementptr inbounds nuw i8, ptr %10, i64 312
  %.sroa.2.0.copyload.i.i = load double, ptr %.sroa.2.0..sroa_idx.i.i, align 8
  %12 = fadd double %.sroa.0.0.copyload.i.i, %.sroa.2.0.copyload.i.i
  %13 = fmul double %12, 5.000000e-01
  tail call void @_ZN7QCPAxis10scaleRangeEdd(ptr noundef align 8 dereferenceable_or_null(472) %10, double noundef %7, double noundef %13)
  tail call void @_ZN11QCustomPlot6replotENS_15RefreshPriorityE(ptr noundef align 8 dereferenceable_or_null(513) %5, i32 noundef 2)
  ret void
}